target datalayout = "e-m:e-p270:32:32-p271:32:32-p272:64:64-i64:64-i128:128-f80:128-n8:16:32:64-S128"
target triple = "x86_64-pc-linux-gnu"

%struct.cli_hashset = type { ptr, ptr, ptr, i32, i32, i32, i32 }

@.str.21 = private unnamed_addr constant [54 x i8] c"hashtab: Freeing hashset, elements: %u, capacity: %u\0A\00", align 1

; Function Attrs: nounwind uwtable
define void @cli_hashset_destroy(ptr noundef %0) #0 {
  %2 = alloca ptr, align 8
  store ptr %0, ptr %2, align 8
  %3 = load ptr, ptr %2, align 8
  %4 = getelementptr inbounds %struct.cli_hashset, ptr %3, i32 0, i32 5
  %5 = load i32, ptr %4, align 8
  %6 = load ptr, ptr %2, align 8
  %7 = getelementptr inbounds %struct.cli_hashset, ptr %6, i32 0, i32 3
  %8 = load i32, ptr %7, align 8
  call void (ptr, ...) @cli_dbgmsg(ptr noundef @.str.21, i32 noundef %5, i32 noundef %8)
  %9 = load ptr, ptr %2, align 8
  %10 = getelementptr inbounds %struct.cli_hashset, ptr %9, i32 0, i32 2
  %11 = load ptr, ptr %10, align 8
  %12 = icmp ne ptr %11, null
  br i1 %12, label %13, label %26

13:                                               ; preds = %1
  %14 = load ptr, ptr %2, align 8
  %15 = getelementptr inbounds %struct.cli_hashset, ptr %14, i32 0, i32 2
  %16 = load ptr, ptr %15, align 8
  %17 = load ptr, ptr %2, align 8
  %18 = getelementptr inbounds %struct.cli_hashset, ptr %17, i32 0, i32 0
  %19 = load ptr, ptr %18, align 8
  call void @mpool_free(ptr noundef %16, ptr noundef %19)
  %20 = load ptr, ptr %2, align 8
  %21 = getelementptr inbounds %struct.cli_hashset, ptr %20, i32 0, i32 2
  %22 = load ptr, ptr %21, align 8
  %23 = load ptr, ptr %2, align 8
  %24 = getelementptr inbounds %struct.cli_hashset, ptr %23, i32 0, i32 1
  %25 = load ptr, ptr %24, align 8
  call void @mpool_free(ptr noundef %22, ptr noundef %25)
  br label %33

26:                                               ; preds = %1
  %27 = load ptr, ptr %2, align 8
  %28 = getelementptr inbounds %struct.cli_hashset, ptr %27, i32 0, i32 0
  %29 = load ptr, ptr %28, align 8
  call void @free(ptr noundef %29) #7
  %30 = load ptr, ptr %2, align 8
  %31 = getelementptr inbounds %struct.cli_hashset, ptr %30, i32 0, i32 1
  %32 = load ptr, ptr %31, align 8
  call void @free(ptr noundef %32) #7
  br label %33

33:                                               ; preds = %26, %13
  %34 = load ptr, ptr %2, align 8
  %35 = getelementptr inbounds %struct.cli_hashset, ptr %34, i32 0, i32 1
  store ptr null, ptr %35, align 8
  %36 = load ptr, ptr %2, align 8
  %37 = getelementptr inbounds %struct.cli_hashset, ptr %36, i32 0, i32 0
  store ptr null, ptr %37, align 8
  %38 = load ptr, ptr %2, align 8
  %39 = getelementptr inbounds %struct.cli_hashset, ptr %38, i32 0, i32 3
  store i32 0, ptr %39, align 8
  ret void
}