; Function Attrs: nounwind uwtable
define void @cli_hashset_destroy(ptr nocapture noundef %0) local_unnamed_addr #0 {
  %2 = getelementptr inbounds i8, ptr %0, i64 32
  %3 = load i32, ptr %2, align 8
  %4 = getelementptr inbounds i8, ptr %0, i64 24
  %5 = load i32, ptr %4, align 8
  tail call void (ptr, ...) @cli_dbgmsg(ptr noundef nonnull @.str.21, i32 noundef %3, i32 noundef %5) #18
  %6 = getelementptr inbounds i8, ptr %0, i64 16
  %7 = load ptr, ptr %6, align 8
  %.not = icmp eq ptr %7, null
  %8 = load ptr, ptr %0, align 8
  br i1 %.not, label %13, label %9

9:                                                ; preds = %1
  tail call void @mpool_free(ptr noundef nonnull %7, ptr noundef %8) #18
  %10 = load ptr, ptr %6, align 8
  %11 = getelementptr inbounds i8, ptr %0, i64 8
  %12 = load ptr, ptr %11, align 8
  tail call void @mpool_free(ptr noundef %10, ptr noundef %12) #18
  br label %16

13:                                               ; preds = %1
  tail call void @free(ptr noundef %8) #18
  %14 = getelementptr inbounds i8, ptr %0, i64 8
  %15 = load ptr, ptr %14, align 8
  tail call void @free(ptr noundef %15) #18
  br label %16

16:                                               ; preds = %13, %9
  store i32 0, ptr %4, align 8
  tail call void @llvm.memset.p0.i64(ptr noundef nonnull align 8 dereferenceable(16) %0, i8 0, i64 16, i1 false)
  ret void
}